target datalayout = "e-m:e-p270:32:32-p271:32:32-p272:64:64-i64:64-i128:128-f80:128-n8:16:32:64-S128"
target triple = "x86_64-pc-linux-gnu"

; Function Attrs: nounwind uwtable
define hidden void @KeccakP1600_OverwriteBytesInLane(ptr noundef %0, i32 noundef %1, ptr noundef %2, i32 noundef %3, i32 noundef %4) #0 {
  %6 = alloca ptr, align 8
  %7 = alloca i32, align 4
  %8 = alloca ptr, align 8
  %9 = alloca i32, align 4
  %10 = alloca i32, align 4
  %11 = alloca i32, align 4
  store ptr %0, ptr %6, align 8, !tbaa !4
  store i32 %1, ptr %7, align 4, !tbaa !10
  store ptr %2, ptr %8, align 8, !tbaa !12
  store i32 %3, ptr %9, align 4, !tbaa !10
  store i32 %4, ptr %10, align 4, !tbaa !10
  %12 = load i32, ptr %7, align 4, !tbaa !10
  %13 = icmp eq i32 %12, 1
  br i1 %13, label %29, label %14

14:                                               ; preds = %5
  %15 = load i32, ptr %7, align 4, !tbaa !10
  %16 = icmp eq i32 %15, 2
  br i1 %16, label %29, label %17

17:                                               ; preds = %14
  %18 = load i32, ptr %7, align 4, !tbaa !10
  %19 = icmp eq i32 %18, 8
  br i1 %19, label %29, label %20

20:                                               ; preds = %17
  %21 = load i32, ptr %7, align 4, !tbaa !10
  %22 = icmp eq i32 %21, 12
  br i1 %22, label %29, label %23

23:                                               ; preds = %20
  %24 = load i32, ptr %7, align 4, !tbaa !10
  %25 = icmp eq i32 %24, 17
  br i1 %25, label %29, label %26

26:                                               ; preds = %23
  %27 = load i32, ptr %7, align 4, !tbaa !10
  %28 = icmp eq i32 %27, 20
  br i1 %28, label %29, label %56

29:                                               ; preds = %26, %23, %20, %17, %14, %5
  call void @llvm.lifetime.start.p0(i64 4, ptr %11) #4
  store i32 0, ptr %11, align 4, !tbaa !10
  br label %30

30:                                               ; preds = %52, %29
  %31 = load i32, ptr %11, align 4, !tbaa !10
  %32 = load i32, ptr %10, align 4, !tbaa !10
  %33 = icmp ult i32 %31, %32
  br i1 %33, label %34, label %55

34:                                               ; preds = %30
  %35 = load ptr, ptr %8, align 8, !tbaa !12
  %36 = load i32, ptr %11, align 4, !tbaa !10
  %37 = zext i32 %36 to i64
  %38 = getelementptr inbounds nuw i8, ptr %35, i64 %37
  %39 = load i8, ptr %38, align 1, !tbaa !14
  %40 = zext i8 %39 to i32
  %41 = xor i32 %40, -1
  %42 = trunc i32 %41 to i8
  %43 = load ptr, ptr %6, align 8, !tbaa !4
  %44 = load i32, ptr %7, align 4, !tbaa !10
  %45 = mul i32 %44, 8
  %46 = load i32, ptr %9, align 4, !tbaa !10
  %47 = add i32 %45, %46
  %48 = load i32, ptr %11, align 4, !tbaa !10
  %49 = add i32 %47, %48
  %50 = zext i32 %49 to i64
  %51 = getelementptr inbounds nuw i8, ptr %43, i64 %50
  store i8 %42, ptr %51, align 1, !tbaa !14
  br label %52

52:                                               ; preds = %34
  %53 = load i32, ptr %11, align 4, !tbaa !10
  %54 = add i32 %53, 1
  store i32 %54, ptr %11, align 4, !tbaa !10
  br label %30

55:                                               ; preds = %30
  call void @llvm.lifetime.end.p0(i64 4, ptr %11) #4
  br label %68

56:                                               ; preds = %26
  %57 = load ptr, ptr %6, align 8, !tbaa !4
  %58 = load i32, ptr %7, align 4, !tbaa !10
  %59 = mul i32 %58, 8
  %60 = zext i32 %59 to i64
  %61 = getelementptr inbounds nuw i8, ptr %57, i64 %60
  %62 = load i32, ptr %9, align 4, !tbaa !10
  %63 = zext i32 %62 to i64
  %64 = getelementptr inbounds nuw i8, ptr %61, i64 %63
  %65 = load ptr, ptr %8, align 8, !tbaa !12
  %66 = load i32, ptr %10, align 4, !tbaa !10
  %67 = zext i32 %66 to i64
  call void @llvm.memcpy.p0.p0.i64(ptr align 1 %64, ptr align 1 %65, i64 %67, i1 false)
  br label %68

68:                                               ; preds = %56, %55
  ret void
}

; Function Attrs: nounwind uwtable
define hidden void @KeccakP1600_OverwriteLanes(ptr noundef %0, ptr noundef %1, i32 noundef %2) #0 {
  %4 = alloca ptr, align 8
  %5 = alloca ptr, align 8
  %6 = alloca i32, align 4
  %7 = alloca i32, align 4
  store ptr %0, ptr %4, align 8, !tbaa !4
  store ptr %1, ptr %5, align 8, !tbaa !12
  store i32 %2, ptr %6, align 4, !tbaa !10
  call void @llvm.lifetime.start.p0(i64 4, ptr %7) #4
  store i32 0, ptr %7, align 4, !tbaa !10
  br label %8

8:                                                ; preds = %52, %3
  %9 = load i32, ptr %7, align 4, !tbaa !10
  %10 = load i32, ptr %6, align 4, !tbaa !10
  %11 = icmp ult i32 %9, %10
  br i1 %11, label %12, label %55

12:                                               ; preds = %8
  %13 = load i32, ptr %7, align 4, !tbaa !10
  %14 = icmp eq i32 %13, 1
  br i1 %14, label %30, label %15

15:                                               ; preds = %12
  %16 = load i32, ptr %7, align 4, !tbaa !10
  %17 = icmp eq i32 %16, 2
  br i1 %17, label %30, label %18

18:                                               ; preds = %15
  %19 = load i32, ptr %7, align 4, !tbaa !10
  %20 = icmp eq i32 %19, 8
  br i1 %20, label %30, label %21

21:                                               ; preds = %18
  %22 = load i32, ptr %7, align 4, !tbaa !10
  %23 = icmp eq i32 %22, 12
  br i1 %23, label %30, label %24

24:                                               ; preds = %21
  %25 = load i32, ptr %7, align 4, !tbaa !10
  %26 = icmp eq i32 %25, 17
  br i1 %26, label %30, label %27

27:                                               ; preds = %24
  %28 = load i32, ptr %7, align 4, !tbaa !10
  %29 = icmp eq i32 %28, 20
  br i1 %29, label %30, label %41

30:                                               ; preds = %27, %24, %21, %18, %15, %12
  %31 = load ptr, ptr %5, align 8, !tbaa !12
  %32 = load i32, ptr %7, align 4, !tbaa !10
  %33 = zext i32 %32 to i64
  %34 = getelementptr inbounds nuw i64, ptr %31, i64 %33
  %35 = load i64, ptr %34, align 8, !tbaa !8
  %36 = xor i64 %35, -1
  %37 = load ptr, ptr %4, align 8, !tbaa !4
  %38 = load i32, ptr %7, align 4, !tbaa !10
  %39 = zext i32 %38 to i64
  %40 = getelementptr inbounds nuw i64, ptr %37, i64 %39
  store i64 %36, ptr %40, align 8, !tbaa !8
  br label %51

41:                                               ; preds = %27
  %42 = load ptr, ptr %5, align 8, !tbaa !12
  %43 = load i32, ptr %7, align 4, !tbaa !10
  %44 = zext i32 %43 to i64
  %45 = getelementptr inbounds nuw i64, ptr %42, i64 %44
  %46 = load i64, ptr %45, align 8, !tbaa !8
  %47 = load ptr, ptr %4, align 8, !tbaa !4
  %48 = load i32, ptr %7, align 4, !tbaa !10
  %49 = zext i32 %48 to i64
  %50 = getelementptr inbounds nuw i64, ptr %47, i64 %49
  store i64 %46, ptr %50, align 8, !tbaa !8
  br label %51

51:                                               ; preds = %41, %30
  br label %52

52:                                               ; preds = %51
  %53 = load i32, ptr %7, align 4, !tbaa !10
  %54 = add i32 %53, 1
  store i32 %54, ptr %7, align 4, !tbaa !10
  br label %8

55:                                               ; preds = %8
  call void @llvm.lifetime.end.p0(i64 4, ptr %7) #4
  ret void
}

; Function Attrs: nounwind uwtable
define hidden void @KeccakP1600_OverwriteBytes(ptr noundef %0, ptr noundef %1, i32 noundef %2, i32 noundef %3) #0 {
  %5 = alloca ptr, align 8
  %6 = alloca ptr, align 8
  %7 = alloca i32, align 4
  %8 = alloca i32, align 4
  %9 = alloca i32, align 4
  %10 = alloca i32, align 4
  %11 = alloca i32, align 4
  %12 = alloca ptr, align 8
  %13 = alloca i32, align 4
  store ptr %0, ptr %5, align 8, !tbaa !4
  store ptr %1, ptr %6, align 8, !tbaa !12
  store i32 %2, ptr %7, align 4, !tbaa !10
  store i32 %3, ptr %8, align 4, !tbaa !10
  %14 = load i32, ptr %7, align 4, !tbaa !10
  %15 = icmp eq i32 %14, 0
  br i1 %15, label %16, label %32

16:                                               ; preds = %4
  %17 = load ptr, ptr %5, align 8, !tbaa !4
  %18 = load ptr, ptr %6, align 8, !tbaa !12
  %19 = load i32, ptr %8, align 4, !tbaa !10
  %20 = udiv i32 %19, 8
  call void @KeccakP1600_OverwriteLanes(ptr noundef %17, ptr noundef %18, i32 noundef %20)
  %21 = load ptr, ptr %5, align 8, !tbaa !4
  %22 = load i32, ptr %8, align 4, !tbaa !10
  %23 = udiv i32 %22, 8
  %24 = load ptr, ptr %6, align 8, !tbaa !12
  %25 = load i32, ptr %8, align 4, !tbaa !10
  %26 = udiv i32 %25, 8
  %27 = mul i32 %26, 8
  %28 = zext i32 %27 to i64
  %29 = getelementptr inbounds nuw i8, ptr %24, i64 %28
  %30 = load i32, ptr %8, align 4, !tbaa !10
  %31 = urem i32 %30, 8
  call void @KeccakP1600_OverwriteBytesInLane(ptr noundef %21, i32 noundef %23, ptr noundef %29, i32 noundef 0, i32 noundef %31)
  br label %66

32:                                               ; preds = %4
  call void @llvm.lifetime.start.p0(i64 4, ptr %9) #4
  %33 = load i32, ptr %8, align 4, !tbaa !10
  store i32 %33, ptr %9, align 4, !tbaa !10
  call void @llvm.lifetime.start.p0(i64 4, ptr %10) #4
  %34 = load i32, ptr %7, align 4, !tbaa !10
  %35 = udiv i32 %34, 8
  store i32 %35, ptr %10, align 4, !tbaa !10
  call void @llvm.lifetime.start.p0(i64 4, ptr %11) #4
  %36 = load i32, ptr %7, align 4, !tbaa !10
  %37 = urem i32 %36, 8
  store i32 %37, ptr %11, align 4, !tbaa !10
  call void @llvm.lifetime.start.p0(i64 8, ptr %12) #4
  %38 = load ptr, ptr %6, align 8, !tbaa !12
  store ptr %38, ptr %12, align 8, !tbaa !12
  br label %39

39:                                               ; preds = %50, %32
  %40 = load i32, ptr %9, align 4, !tbaa !10
  %41 = icmp ugt i32 %40, 0
  br i1 %41, label %42, label %65

42:                                               ; preds = %39
  call void @llvm.lifetime.start.p0(i64 4, ptr %13) #4
  %43 = load i32, ptr %11, align 4, !tbaa !10
  %44 = sub i32 8, %43
  store i32 %44, ptr %13, align 4, !tbaa !10
  %45 = load i32, ptr %13, align 4, !tbaa !10
  %46 = load i32, ptr %9, align 4, !tbaa !10
  %47 = icmp ugt i32 %45, %46
  br i1 %47, label %48, label %50

48:                                               ; preds = %42
  %49 = load i32, ptr %9, align 4, !tbaa !10
  store i32 %49, ptr %13, align 4, !tbaa !10
  br label %50

50:                                               ; preds = %48, %42
  %51 = load ptr, ptr %5, align 8, !tbaa !4
  %52 = load i32, ptr %10, align 4, !tbaa !10
  %53 = load ptr, ptr %12, align 8, !tbaa !12
  %54 = load i32, ptr %11, align 4, !tbaa !10
  %55 = load i32, ptr %13, align 4, !tbaa !10
  call void @KeccakP1600_OverwriteBytesInLane(ptr noundef %51, i32 noundef %52, ptr noundef %53, i32 noundef %54, i32 noundef %55)
  %56 = load i32, ptr %13, align 4, !tbaa !10
  %57 = load i32, ptr %9, align 4, !tbaa !10
  %58 = sub i32 %57, %56
  store i32 %58, ptr %9, align 4, !tbaa !10
  %59 = load i32, ptr %10, align 4, !tbaa !10
  %60 = add i32 %59, 1
  store i32 %60, ptr %10, align 4, !tbaa !10
  store i32 0, ptr %11, align 4, !tbaa !10
  %61 = load i32, ptr %13, align 4, !tbaa !10
  %62 = load ptr, ptr %12, align 8, !tbaa !12
  %63 = zext i32 %61 to i64
  %64 = getelementptr inbounds nuw i8, ptr %62, i64 %63
  store ptr %64, ptr %12, align 8, !tbaa !12
  call void @llvm.lifetime.end.p0(i64 4, ptr %13) #4
  br label %39

65:                                               ; preds = %39
  call void @llvm.lifetime.end.p0(i64 8, ptr %12) #4
  call void @llvm.lifetime.end.p0(i64 4, ptr %11) #4
  call void @llvm.lifetime.end.p0(i64 4, ptr %10) #4
  call void @llvm.lifetime.end.p0(i64 4, ptr %9) #4
  br label %66

66:                                               ; preds = %65, %16
  ret void
}