; Function Attrs: nofree norecurse nosync nounwind memory(argmem: readwrite) uwtable
define hidden void @KeccakP1600_OverwriteBytes(ptr noundef writeonly captures(none) %0, ptr noundef readonly captures(none) %1, i32 noundef %2, i32 noundef %3) local_unnamed_addr #5 {
  %5 = icmp eq i32 %2, 0
  br i1 %5, label %6, label %35

6:                                                ; preds = %4
  %7 = lshr i32 %3, 3
  %.not.i = icmp ult i32 %3, 8
  br i1 %.not.i, label %KeccakP1600_OverwriteLanes.exit.thread, label %.lr.ph.preheader.i

.lr.ph.preheader.i:                               ; preds = %6
  %wide.trip.count.i = zext nneg i32 %7 to i64
  br label %.lr.ph.i

.lr.ph.i:                                         ; preds = %16, %.lr.ph.preheader.i
  %indvars.iv.i = phi i64 [ 0, %.lr.ph.preheader.i ], [ %indvars.iv.next.i, %16 ]
  %8 = trunc nuw i64 %indvars.iv.i to i32
  switch i32 %8, label %13 [
    i32 20, label %9
    i32 17, label %9
    i32 12, label %9
    i32 8, label %9
    i32 2, label %9
    i32 1, label %9
  ]

9:                                                ; preds = %.lr.ph.i, %.lr.ph.i, %.lr.ph.i, %.lr.ph.i, %.lr.ph.i, %.lr.ph.i
  %10 = getelementptr inbounds nuw i64, ptr %1, i64 %indvars.iv.i
  %11 = load i64, ptr %10, align 8, !tbaa !4
  %12 = xor i64 %11, -1
  br label %16

13:                                               ; preds = %.lr.ph.i
  %14 = getelementptr inbounds nuw i64, ptr %1, i64 %indvars.iv.i
  %15 = load i64, ptr %14, align 8, !tbaa !4
  br label %16

16:                                               ; preds = %13, %9
  %.sink.i = phi i64 [ %12, %9 ], [ %15, %13 ]
  %17 = getelementptr inbounds nuw i64, ptr %0, i64 %indvars.iv.i
  store i64 %.sink.i, ptr %17, align 8, !tbaa !4
  %indvars.iv.next.i = add nuw nsw i64 %indvars.iv.i, 1
  %exitcond.not.i = icmp eq i64 %indvars.iv.next.i, %wide.trip.count.i
  br i1 %exitcond.not.i, label %KeccakP1600_OverwriteLanes.exit, label %.lr.ph.i

KeccakP1600_OverwriteLanes.exit:                  ; preds = %16
  %18 = and i32 %3, -8
  %19 = zext i32 %18 to i64
  %20 = getelementptr inbounds nuw i8, ptr %1, i64 %19
  %21 = and i32 %3, 7
  switch i32 %7, label %KeccakP1600_OverwriteLanes.exit.thread [
    i32 20, label %22
    i32 17, label %22
    i32 12, label %22
    i32 8, label %22
    i32 2, label %22
    i32 1, label %22
  ]

22:                                               ; preds = %KeccakP1600_OverwriteLanes.exit, %KeccakP1600_OverwriteLanes.exit, %KeccakP1600_OverwriteLanes.exit, %KeccakP1600_OverwriteLanes.exit, %KeccakP1600_OverwriteLanes.exit, %KeccakP1600_OverwriteLanes.exit
  %.not.i33 = icmp eq i32 %21, 0
  br i1 %.not.i33, label %KeccakP1600_OverwriteBytesInLane.exit, label %.lr.ph.i34

.lr.ph.i34:                                       ; preds = %22
  %wide.trip.count.i35 = zext nneg i32 %21 to i64
  br label %23

23:                                               ; preds = %23, %.lr.ph.i34
  %indvars.iv.i36 = phi i64 [ 0, %.lr.ph.i34 ], [ %indvars.iv.next.i37, %23 ]
  %24 = getelementptr inbounds nuw i8, ptr %20, i64 %indvars.iv.i36
  %25 = load i8, ptr %24, align 1, !tbaa !8
  %26 = xor i8 %25, -1
  %27 = trunc nuw i64 %indvars.iv.i36 to i32
  %28 = add i32 %18, %27
  %29 = zext i32 %28 to i64
  %30 = getelementptr inbounds nuw i8, ptr %0, i64 %29
  store i8 %26, ptr %30, align 1, !tbaa !8
  %indvars.iv.next.i37 = add nuw nsw i64 %indvars.iv.i36, 1
  %exitcond.not.i38 = icmp eq i64 %indvars.iv.next.i37, %wide.trip.count.i35
  br i1 %exitcond.not.i38, label %KeccakP1600_OverwriteBytesInLane.exit, label %23

KeccakP1600_OverwriteLanes.exit.thread:           ; preds = %6, %KeccakP1600_OverwriteLanes.exit
  %.pre-phi55 = phi i64 [ %19, %KeccakP1600_OverwriteLanes.exit ], [ 0, %6 ]
  %31 = phi i32 [ %21, %KeccakP1600_OverwriteLanes.exit ], [ %3, %6 ]
  %32 = phi ptr [ %20, %KeccakP1600_OverwriteLanes.exit ], [ %1, %6 ]
  %33 = getelementptr inbounds nuw i8, ptr %0, i64 %.pre-phi55
  %34 = zext nneg i32 %31 to i64
  tail call void @llvm.memcpy.p0.p0.i64(ptr align 1 %33, ptr readonly align 1 %32, i64 %34, i1 false)
  br label %KeccakP1600_OverwriteBytesInLane.exit

35:                                               ; preds = %4
  %.not47 = icmp eq i32 %3, 0
  br i1 %.not47, label %KeccakP1600_OverwriteBytesInLane.exit, label %.lr.ph.preheader

.lr.ph.preheader:                                 ; preds = %35
  %36 = and i32 %2, 7
  %37 = lshr i32 %2, 3
  br label %.lr.ph

.lr.ph:                                           ; preds = %.lr.ph.preheader, %KeccakP1600_OverwriteBytesInLane.exit45
  %.02751 = phi ptr [ %58, %KeccakP1600_OverwriteBytesInLane.exit45 ], [ %1, %.lr.ph.preheader ]
  %.02850 = phi i32 [ 0, %KeccakP1600_OverwriteBytesInLane.exit45 ], [ %36, %.lr.ph.preheader ]
  %.02949 = phi i32 [ %57, %KeccakP1600_OverwriteBytesInLane.exit45 ], [ %37, %.lr.ph.preheader ]
  %.03048 = phi i32 [ %56, %KeccakP1600_OverwriteBytesInLane.exit45 ], [ %3, %.lr.ph.preheader ]
  %38 = sub nuw nsw i32 8, %.02850
  %spec.select = tail call i32 @llvm.umin.i32(i32 %38, i32 %.03048)
  switch i32 %.02949, label %49 [
    i32 20, label %.lr.ph.i40
    i32 17, label %.lr.ph.i40
    i32 12, label %.lr.ph.i40
    i32 8, label %.lr.ph.i40
    i32 2, label %.lr.ph.i40
    i32 1, label %.lr.ph.i40
  ]

.lr.ph.i40:                                       ; preds = %.lr.ph, %.lr.ph, %.lr.ph, %.lr.ph, %.lr.ph, %.lr.ph
  %39 = shl nuw nsw i32 %.02949, 3
  %40 = or disjoint i32 %.02850, %39
  %wide.trip.count.i41 = zext nneg i32 %spec.select to i64
  br label %41

41:                                               ; preds = %41, %.lr.ph.i40
  %indvars.iv.i42 = phi i64 [ 0, %.lr.ph.i40 ], [ %indvars.iv.next.i43, %41 ]
  %42 = getelementptr inbounds nuw i8, ptr %.02751, i64 %indvars.iv.i42
  %43 = load i8, ptr %42, align 1, !tbaa !8
  %44 = xor i8 %43, -1
  %45 = trunc nuw i64 %indvars.iv.i42 to i32
  %46 = add i32 %40, %45
  %47 = zext i32 %46 to i64
  %48 = getelementptr inbounds nuw i8, ptr %0, i64 %47
  store i8 %44, ptr %48, align 1, !tbaa !8
  %indvars.iv.next.i43 = add nuw nsw i64 %indvars.iv.i42, 1
  %exitcond.not.i44 = icmp eq i64 %indvars.iv.next.i43, %wide.trip.count.i41
  br i1 %exitcond.not.i44, label %KeccakP1600_OverwriteBytesInLane.exit45, label %41

49:                                               ; preds = %.lr.ph
  %50 = shl i32 %.02949, 3
  %51 = zext i32 %50 to i64
  %52 = getelementptr inbounds nuw i8, ptr %0, i64 %51
  %53 = zext nneg i32 %.02850 to i64
  %54 = getelementptr inbounds nuw i8, ptr %52, i64 %53
  %55 = zext nneg i32 %spec.select to i64
  tail call void @llvm.memcpy.p0.p0.i64(ptr noundef nonnull align 1 dereferenceable(1) %54, ptr noundef nonnull readonly align 1 dereferenceable(1) %.02751, i64 %55, i1 false)
  br label %KeccakP1600_OverwriteBytesInLane.exit45

KeccakP1600_OverwriteBytesInLane.exit45:          ; preds = %41, %49
  %.pre-phi = phi i64 [ %55, %49 ], [ %wide.trip.count.i41, %41 ]
  %56 = sub i32 %.03048, %spec.select
  %57 = add i32 %.02949, 1
  %58 = getelementptr inbounds nuw i8, ptr %.02751, i64 %.pre-phi
  %.not = icmp eq i32 %56, 0
  br i1 %.not, label %KeccakP1600_OverwriteBytesInLane.exit, label %.lr.ph

KeccakP1600_OverwriteBytesInLane.exit:            ; preds = %KeccakP1600_OverwriteBytesInLane.exit45, %23, %35, %KeccakP1600_OverwriteLanes.exit.thread, %22
  ret void
}